; Function Attrs: mustprogress nofree norecurse nosync nounwind willreturn memory(read, inaccessiblemem: none) uwtable
define dso_local noundef ptr @_ZN5clang17CXXDefaultArgExpr24getAdjustedRewrittenExprEv(ptr noundef nonnull readonly align 8 captures(none) dereferenceable(32) %0) local_unnamed_addr #8 align 2 {
  %2 = load i32, ptr %0, align 8
  %3 = and i32 %2, 262144
  %.not.i = icmp eq i32 %3, 0
  br i1 %.not.i, label %_ZN4llvm19dyn_cast_if_presentIN5clang8FullExprENS1_4ExprEEEDaPT0_.exit.thread, label %_ZN5clang17CXXDefaultArgExpr16getRewrittenExprEv.exit

_ZN5clang17CXXDefaultArgExpr16getRewrittenExprEv.exit: ; preds = %1
  %4 = getelementptr inbounds nuw i8, ptr %0, i64 32
  %5 = load ptr, ptr %4, align 8
  %.not.i4 = icmp eq ptr %5, null
  br i1 %.not.i4, label %_ZN4llvm19dyn_cast_if_presentIN5clang8FullExprENS1_4ExprEEEDaPT0_.exit.thread, label %6

6:                                                ; preds = %_ZN5clang17CXXDefaultArgExpr16getRewrittenExprEv.exit
  %7 = load i8, ptr %5, align 8
  %8 = and i8 %7, -2
  %spec.select.i.i.i.i.i.i.i.i = icmp ne i8 %8, 60
  %9 = icmp eq i8 %7, 61
  %or.cond = or i1 %spec.select.i.i.i.i.i.i.i.i, %9
  br i1 %or.cond, label %_ZN4llvm19dyn_cast_if_presentIN5clang8FullExprENS1_4ExprEEEDaPT0_.exit.thread, label %10

10:                                               ; preds = %6
  %11 = getelementptr inbounds nuw i8, ptr %5, i64 16
  %12 = load ptr, ptr %11, align 8
  br label %_ZN4llvm19dyn_cast_if_presentIN5clang8FullExprENS1_4ExprEEEDaPT0_.exit.thread

_ZN4llvm19dyn_cast_if_presentIN5clang8FullExprENS1_4ExprEEEDaPT0_.exit.thread: ; preds = %1, %_ZN5clang17CXXDefaultArgExpr16getRewrittenExprEv.exit, %6, %10
  %.0 = phi ptr [ %12, %10 ], [ null, %_ZN5clang17CXXDefaultArgExpr16getRewrittenExprEv.exit ], [ %5, %6 ], [ null, %1 ]
  ret ptr %.0
}